target datalayout = "e-m:e-p270:32:32-p271:32:32-p272:64:64-i64:64-i128:128-f80:128-n8:16:32:64-S128"
target triple = "x86_64-unknown-linux-gnu"

%"class.rocksdb::Arena" = type { %"class.rocksdb::Allocator", [8 x i8], [2048 x i8], i64, %"class.std::deque", %"class.std::deque.0", i64, ptr, ptr, i64, i64, i64, ptr }
%"class.rocksdb::Allocator" = type { ptr }
%"class.std::deque" = type { %"class.std::_Deque_base" }
%"class.std::_Deque_base" = type { %"struct.std::_Deque_base<std::unique_ptr<char[]>, std::allocator<std::unique_ptr<char[]>>>::_Deque_impl" }
%"struct.std::_Deque_base<std::unique_ptr<char[]>, std::allocator<std::unique_ptr<char[]>>>::_Deque_impl" = type { %"struct.std::_Deque_base<std::unique_ptr<char[]>, std::allocator<std::unique_ptr<char[]>>>::_Deque_impl_data" }
%"struct.std::_Deque_base<std::unique_ptr<char[]>, std::allocator<std::unique_ptr<char[]>>>::_Deque_impl_data" = type { ptr, i64, %"struct.std::_Deque_iterator", %"struct.std::_Deque_iterator" }
%"struct.std::_Deque_iterator" = type { ptr, ptr, ptr, ptr }
%"class.std::deque.0" = type { %"class.std::_Deque_base.1" }
%"class.std::_Deque_base.1" = type { %"struct.std::_Deque_base<rocksdb::MemMapping, std::allocator<rocksdb::MemMapping>>::_Deque_impl" }
%"struct.std::_Deque_base<rocksdb::MemMapping, std::allocator<rocksdb::MemMapping>>::_Deque_impl" = type { %"struct.std::_Deque_base<rocksdb::MemMapping, std::allocator<rocksdb::MemMapping>>::_Deque_impl_data" }
%"struct.std::_Deque_base<rocksdb::MemMapping, std::allocator<rocksdb::MemMapping>>::_Deque_impl_data" = type { ptr, i64, %"struct.std::_Deque_iterator.5", %"struct.std::_Deque_iterator.5" }
%"struct.std::_Deque_iterator.5" = type { ptr, ptr, ptr, ptr }

@_ZTVN7rocksdb5ArenaE = unnamed_addr constant { [7 x ptr] } { [7 x ptr] [ptr null, ptr null, ptr @_ZN7rocksdb5ArenaD1Ev, ptr @_ZN7rocksdb5ArenaD0Ev, ptr @_ZN7rocksdb5Arena8AllocateEm, ptr @_ZN7rocksdb5Arena15AllocateAlignedEmmPNS_6LoggerE, ptr @_ZNK7rocksdb5Arena9BlockSizeEv] }, align 8

; Function Attrs: mustprogress nounwind uwtable
define linkonce_odr void @_ZN7rocksdb9AllocatorD2Ev(ptr noundef nonnull align 8 dereferenceable(8) %this) unnamed_addr #1 comdat align 2 {
entry:
  %this.addr = alloca ptr, align 8
  store ptr %this, ptr %this.addr, align 8
  ret void
}

; Function Attrs: mustprogress nounwind uwtable
define void @_ZN7rocksdb5ArenaD2Ev(ptr noundef nonnull align 16 dereferenceable(2288) %this) unnamed_addr #1 align 2 personality ptr @__gxx_personality_v0 {
entry:
  %this.addr = alloca ptr, align 8
  store ptr %this, ptr %this.addr, align 8
  %this1 = load ptr, ptr %this.addr, align 8
  store ptr getelementptr inbounds ({ [7 x ptr] }, ptr @_ZTVN7rocksdb5ArenaE, i32 0, i32 0, i32 2), ptr %this1, align 16
  %tracker_ = getelementptr inbounds %"class.rocksdb::Arena", ptr %this1, i32 0, i32 12
  %0 = load ptr, ptr %tracker_, align 8
  %cmp = icmp ne ptr %0, null
  br i1 %cmp, label %if.then, label %if.end

if.then:                                          ; preds = %entry
  %tracker_2 = getelementptr inbounds %"class.rocksdb::Arena", ptr %this1, i32 0, i32 12
  %1 = load ptr, ptr %tracker_2, align 8
  invoke void @_ZN7rocksdb12AllocTracker7FreeMemEv(ptr noundef nonnull align 8 dereferenceable(18) %1)
          to label %invoke.cont unwind label %terminate.lpad

invoke.cont:                                      ; preds = %if.then
  br label %if.end

if.end:                                           ; preds = %invoke.cont, %entry
  %huge_blocks_ = getelementptr inbounds %"class.rocksdb::Arena", ptr %this1, i32 0, i32 5
  call void @_ZNSt5dequeIN7rocksdb10MemMappingESaIS1_EED2Ev(ptr noundef nonnull align 8 dereferenceable(80) %huge_blocks_) #11
  %blocks_ = getelementptr inbounds %"class.rocksdb::Arena", ptr %this1, i32 0, i32 4
  call void @_ZNSt5dequeISt10unique_ptrIA_cSt14default_deleteIS1_EESaIS4_EED2Ev(ptr noundef nonnull align 8 dereferenceable(80) %blocks_) #11
  call void @_ZN7rocksdb9AllocatorD2Ev(ptr noundef nonnull align 8 dereferenceable(8) %this1) #11
  ret void

terminate.lpad:                                   ; preds = %if.then
  %2 = landingpad { ptr, i32 }
          catch ptr null
  %3 = extractvalue { ptr, i32 } %2, 0
  call void @__clang_call_terminate(ptr %3) #12
  unreachable
}