; Function Attrs: mustprogress nounwind uwtable
define void @_ZN7rocksdb5ArenaD2Ev(ptr noundef nonnull align 16 dereferenceable(2288) %this) unnamed_addr #3 align 2 personality ptr @__gxx_personality_v0 {
entry:
  store ptr getelementptr inbounds ({ [7 x ptr] }, ptr @_ZTVN7rocksdb5ArenaE, i64 0, i32 0, i64 2), ptr %this, align 16
  %tracker_ = getelementptr inbounds i8, ptr %this, i64 2280
  %0 = load ptr, ptr %tracker_, align 8
  %cmp.not = icmp eq ptr %0, null
  br i1 %cmp.not, label %if.end, label %if.then

if.then:                                          ; preds = %entry
  invoke void @_ZN7rocksdb12AllocTracker7FreeMemEv(ptr noundef nonnull align 8 dereferenceable(18) %0)
          to label %if.end unwind label %terminate.lpad

if.end:                                           ; preds = %if.then, %entry
  %huge_blocks_ = getelementptr inbounds i8, ptr %this, i64 2152
  tail call void @_ZNSt5dequeIN7rocksdb10MemMappingESaIS1_EED2Ev(ptr noundef nonnull align 8 dereferenceable(80) %huge_blocks_) #14
  %blocks_ = getelementptr inbounds i8, ptr %this, i64 2072
  tail call void @_ZNSt5dequeISt10unique_ptrIA_cSt14default_deleteIS1_EESaIS4_EED2Ev(ptr noundef nonnull align 8 dereferenceable(80) %blocks_) #14
  ret void

terminate.lpad:                                   ; preds = %if.then
  %1 = landingpad { ptr, i32 }
          catch ptr null
  %2 = extractvalue { ptr, i32 } %1, 0
  tail call void @__clang_call_terminate(ptr %2) #16
  unreachable
}